target datalayout = "e-m:e-p270:32:32-p271:32:32-p272:64:64-i64:64-i128:128-f80:128-n8:16:32:64-S128"
target triple = "x86_64-pc-linux-gnu"

%"class.i18n::phonenumbers::UnicodeText::const_iterator" = type { ptr }

; Function Attrs: inlinehint mustprogress nounwind uwtable
define linkonce_odr dso_local noundef i32 @_ZN4i18n12phonenumbers6UniLib10OneCharLenEPKc(ptr noundef %0) #2 comdat {
  %2 = alloca ptr, align 8
  store ptr %0, ptr %2, align 8, !tbaa !12
  %3 = load ptr, ptr %2, align 8, !tbaa !12
  %4 = load i8, ptr %3, align 1, !tbaa !15
  %5 = zext i8 %4 to i64
  %6 = getelementptr inbounds nuw [256 x i8], ptr @_ZN4i18n12phonenumbers6UniLibL11kUTF8LenTblE, i64 0, i64 %5
  %7 = load i8, ptr %6, align 1, !tbaa !15
  %8 = zext i8 %7 to i32
  ret i32 %8
}

; Function Attrs: mustprogress uwtable
define dso_local noundef nonnull align 8 dereferenceable(8) ptr @_ZN4i18n12phonenumbers11UnicodeText14const_iteratorppEv(ptr noundef nonnull align 8 dereferenceable(8) %0) #0 align 2 {
  %2 = alloca ptr, align 8
  store ptr %0, ptr %2, align 8, !tbaa !4
  %3 = load ptr, ptr %2, align 8
  %4 = getelementptr inbounds nuw %"class.i18n::phonenumbers::UnicodeText::const_iterator", ptr %3, i32 0, i32 0
  %5 = load ptr, ptr %4, align 8, !tbaa !9
  %6 = call noundef i32 @_ZN4i18n12phonenumbers6UniLib10OneCharLenEPKc(ptr noundef %5)
  %7 = getelementptr inbounds nuw %"class.i18n::phonenumbers::UnicodeText::const_iterator", ptr %3, i32 0, i32 0
  %8 = load ptr, ptr %7, align 8, !tbaa !9
  %9 = sext i32 %6 to i64
  %10 = getelementptr inbounds i8, ptr %8, i64 %9
  store ptr %10, ptr %7, align 8, !tbaa !9
  ret ptr %3
}